target datalayout = "e-m:e-p270:32:32-p271:32:32-p272:64:64-i64:64-i128:128-f80:128-n8:16:32:64-S128"
target triple = "x86_64-pc-linux-gnu"

%union.pthread_mutex_t = type { %struct.__pthread_mutex_s }
%struct.__pthread_mutex_s = type { i32, i32, i32, i32, i32, i16, i16, %struct.__pthread_internal_list }
%struct.__pthread_internal_list = type { ptr, ptr }
%union.pthread_cond_t = type { %struct.__pthread_cond_s }
%struct.__pthread_cond_s = type { %union.__atomic_wide_counter, %union.__atomic_wide_counter, [2 x i32], [2 x i32], i32, i32, [2 x i32] }
%union.__atomic_wide_counter = type { i64 }
%struct.settings = type { i64, i32, i32, i32, ptr, i32, i32, i32, ptr, ptr, i32, double, i32, i32, i32, i8, i32, i32, i8, i32, i32, i32, i32, i32, i32, i8, i8, i8, i8, i8, i8, i8, i32, i32, double, double, i32, i32, i8, i32, i8, i8, ptr, i32, i32, i32, i32, double, double, i32, i8, i32, i32, i32, i32, i32, i8, i8, i8, ptr, i32, i32, i32, i32, i32, i32, i32, i32, i32, i32, double, i8, i32, i32, ptr, i32 }

@lru_crawler_lock = internal global %union.pthread_mutex_t zeroinitializer, align 8
@do_run_lru_crawler_thread = internal global i32 0, align 4
@lru_crawler_cond = internal global %union.pthread_cond_t zeroinitializer, align 8
@item_crawler_tid = internal global i64 0, align 8
@stderr = external global ptr, align 8
@settings = external global %struct.settings, align 8
@.str.1 = private unnamed_addr constant [37 x i8] c"Can't create LRU crawler thread: %s\0A\00", align 1
@.str.2 = private unnamed_addr constant [15 x i8] c"mc-itemcrawler\00", align 1

; Function Attrs: nounwind uwtable
define dso_local i32 @start_item_crawler_thread() #0 {
  %1 = alloca i32, align 4
  %2 = alloca i32, align 4
  %3 = alloca i32, align 4
  call void @llvm.lifetime.start.p0(i64 4, ptr %2) #11
  %4 = load i8, ptr getelementptr inbounds nuw (%struct.settings, ptr @settings, i32 0, i32 27), align 2, !tbaa !59, !range !33, !noundef !34
  %5 = trunc i8 %4 to i1
  br i1 %5, label %6, label %7

6:                                                ; preds = %0
  store i32 -1, ptr %1, align 4
  store i32 1, ptr %3, align 4
  br label %21

7:                                                ; preds = %0
  %8 = call i32 @pthread_mutex_lock(ptr noundef @lru_crawler_lock) #11
  store volatile i32 1, ptr @do_run_lru_crawler_thread, align 4, !tbaa !20
  %9 = call i32 @pthread_create(ptr noundef @item_crawler_tid, ptr noundef null, ptr noundef @item_crawler_thread, ptr noundef null) #11
  store i32 %9, ptr %2, align 4, !tbaa !20
  %10 = icmp ne i32 %9, 0
  br i1 %10, label %11, label %17

11:                                               ; preds = %7
  %12 = load ptr, ptr @stderr, align 8, !tbaa !43
  %13 = load i32, ptr %2, align 4, !tbaa !20
  %14 = call ptr @strerror(i32 noundef %13) #11
  %15 = call i32 (ptr, ptr, ...) @fprintf(ptr noundef %12, ptr noundef @.str.1, ptr noundef %14) #11
  %16 = call i32 @pthread_mutex_unlock(ptr noundef @lru_crawler_lock) #11
  store i32 -1, ptr %1, align 4
  store i32 1, ptr %3, align 4
  br label %21

17:                                               ; preds = %7
  %18 = load i64, ptr @item_crawler_tid, align 8, !tbaa !51
  call void @thread_setname(i64 noundef %18, ptr noundef @.str.2)
  %19 = call i32 @pthread_cond_wait(ptr noundef @lru_crawler_cond, ptr noundef @lru_crawler_lock)
  %20 = call i32 @pthread_mutex_unlock(ptr noundef @lru_crawler_lock) #11
  store i32 0, ptr %1, align 4
  store i32 1, ptr %3, align 4
  br label %21

21:                                               ; preds = %17, %11, %6
  call void @llvm.lifetime.end.p0(i64 4, ptr %2) #11
  %22 = load i32, ptr %1, align 4
  ret i32 %22
}