; Function Attrs: nounwind uwtable
define dso_local range(i32 -1, 1) i32 @start_item_crawler_thread() local_unnamed_addr #0 {
  %1 = load i8, ptr getelementptr inbounds nuw (i8, ptr @settings, i64 134), align 2, !tbaa !52, !range !46, !noundef !47
  %2 = trunc nuw i8 %1 to i1
  br i1 %2, label %14, label %3

3:                                                ; preds = %0
  %4 = tail call i32 @pthread_mutex_lock(ptr noundef nonnull @lru_crawler_lock) #18
  store volatile i32 1, ptr @do_run_lru_crawler_thread, align 4, !tbaa !10
  %5 = tail call i32 @pthread_create(ptr noundef nonnull @item_crawler_tid, ptr noundef null, ptr noundef nonnull @item_crawler_thread, ptr noundef null) #18
  %.not = icmp eq i32 %5, 0
  br i1 %.not, label %10, label %6

6:                                                ; preds = %3
  %7 = load ptr, ptr @stderr, align 8, !tbaa !34
  %8 = tail call ptr @strerror(i32 noundef %5) #18
  %9 = tail call i32 (ptr, ptr, ...) @fprintf(ptr noundef %7, ptr noundef nonnull @.str.1, ptr noundef %8) #19
  br label %.sink.split

10:                                               ; preds = %3
  %11 = load i64, ptr @item_crawler_tid, align 8, !tbaa !42
  tail call void @thread_setname(i64 noundef %11, ptr noundef nonnull @.str.2) #18
  %12 = tail call i32 @pthread_cond_wait(ptr noundef nonnull @lru_crawler_cond, ptr noundef nonnull @lru_crawler_lock) #18
  br label %.sink.split

.sink.split:                                      ; preds = %6, %10
  %.0.ph = phi i32 [ 0, %10 ], [ -1, %6 ]
  %13 = tail call i32 @pthread_mutex_unlock(ptr noundef nonnull @lru_crawler_lock) #18
  br label %14

14:                                               ; preds = %.sink.split, %0
  %.0 = phi i32 [ -1, %0 ], [ %.0.ph, %.sink.split ]
  ret i32 %.0
}